; Function Attrs: nounwind uwtable
define range(i32 -29, 1) i32 @pmix20_bfrop_pack_proc(ptr noundef readnone captures(none) %0, ptr noundef %1, ptr noundef %2, i32 noundef %3, i16 noundef zeroext %4) local_unnamed_addr #0 {
  %6 = alloca ptr, align 8
  %7 = icmp sgt i32 %3, 0
  br i1 %7, label %.lr.ph, label %.loopexit

.lr.ph:                                           ; preds = %5
  %8 = getelementptr inbounds nuw i8, ptr %1, i64 136
  %9 = getelementptr inbounds nuw i8, ptr %1, i64 160
  %wide.trip.count = zext nneg i32 %3 to i64
  br label %10

10:                                               ; preds = %.lr.ph, %.lr.ph.i.i.preheader
  %indvars.iv = phi i64 [ 0, %.lr.ph ], [ %indvars.iv.next, %.lr.ph.i.i.preheader ]
  call void @llvm.lifetime.start.p0(i64 8, ptr nonnull %6) #8
  %11 = getelementptr inbounds nuw %struct.pmix_proc, ptr %2, i64 %indvars.iv
  store ptr %11, ptr %6, align 8, !tbaa !45
  %12 = call i32 @pmix20_bfrop_pack_string(ptr poison, ptr noundef %1, ptr noundef nonnull %6, i32 noundef 1, i16 zeroext poison)
  %.not = icmp eq i32 %12, 0
  br i1 %.not, label %13, label %.loopexit.sink.split

13:                                               ; preds = %10
  %14 = getelementptr inbounds nuw i8, ptr %11, i64 256
  %15 = load i32, ptr getelementptr inbounds nuw (i8, ptr @pmix_bfrops_base_framework, i64 76), align 4, !tbaa !14
  %or.cond.i.i = icmp ult i32 %15, 64
  br i1 %or.cond.i.i, label %16, label %22

16:                                               ; preds = %13
  %17 = zext nneg i32 %15 to i64
  %18 = getelementptr inbounds nuw [0 x %struct.pmix_output_desc_t], ptr @pmix_output_info, i64 0, i64 %17, i32 2
  %19 = load i32, ptr %18, align 4, !tbaa !20
  %20 = icmp sgt i32 %19, 19
  br i1 %20, label %21, label %22

21:                                               ; preds = %16
  tail call void (i32, ptr, ...) @pmix_output(i32 noundef %15, ptr noundef nonnull @.str.4, i32 noundef 1) #8
  br label %22

22:                                               ; preds = %21, %16, %13
  %23 = tail call ptr @pmix_bfrop_buffer_extend(ptr noundef %1, i64 noundef 4) #8
  %24 = icmp eq ptr %23, null
  br i1 %24, label %.loopexit.sink.split, label %.lr.ph.i.i.preheader

.lr.ph.i.i.preheader:                             ; preds = %22
  %25 = load i32, ptr %14, align 4, !tbaa !34
  %26 = tail call noundef i32 @llvm.bswap.i32(i32 %25)
  store i32 %26, ptr %23, align 1
  %27 = load ptr, ptr %8, align 8, !tbaa !23
  %28 = getelementptr inbounds nuw i8, ptr %27, i64 4
  store ptr %28, ptr %8, align 8, !tbaa !23
  %29 = load i64, ptr %9, align 8, !tbaa !24
  %30 = add i64 %29, 4
  store i64 %30, ptr %9, align 8, !tbaa !24
  call void @llvm.lifetime.end.p0(i64 8, ptr nonnull %6) #8
  %indvars.iv.next = add nuw nsw i64 %indvars.iv, 1
  %exitcond.not = icmp eq i64 %indvars.iv.next, %wide.trip.count
  br i1 %exitcond.not, label %.loopexit, label %10, !llvm.loop !65

.loopexit.sink.split:                             ; preds = %22, %10
  %.2.ph = phi i32 [ %12, %10 ], [ -29, %22 ]
  call void @llvm.lifetime.end.p0(i64 8, ptr nonnull %6) #8
  br label %.loopexit

.loopexit:                                        ; preds = %.lr.ph.i.i.preheader, %.loopexit.sink.split, %5
  %.2 = phi i32 [ 0, %5 ], [ %.2.ph, %.loopexit.sink.split ], [ 0, %.lr.ph.i.i.preheader ]
  ret i32 %.2
}